; Function Attrs: mustprogress nounwind uwtable
define dso_local void @_ZN4node17PerIsolateOptions12CheckOptionsEPSt6vectorINSt7__cxx1112basic_stringIcSt11char_traitsIcESaIcEEESaIS7_EESA_(ptr nocapture noundef nonnull readonly align 8 dereferenceable(104) %this, ptr noundef %errors, ptr noundef %argv) unnamed_addr #3 align 2 {
entry:
  %per_env = getelementptr inbounds i8, ptr %this, i64 8
  %0 = load ptr, ptr %per_env, align 8
  %vtable = load ptr, ptr %0, align 8
  %1 = load ptr, ptr %vtable, align 8
  tail call void %1(ptr noundef nonnull align 8 dereferenceable(1144) %0, ptr noundef %errors, ptr noundef %argv) #22
  ret void
}